(dp0
S'SoData'
p1
(dp2
S'SaveData'
p3
I01
ssS'SeData'
p4
(dp5
g3
(lp6
S'temp'
p7
aS'humid'
p8
aS'press'
p9
aS'illum'
p10
assS'StData'
p11
(lp12
(dp13
S'LowThr'
p14
F0.1
sS'Desc'
p15
S'volume is 1.0 l, fill time is 35.6 s, sensor detects station is empty'
p16
sS'Name'
p17
Vtest vana
p18
sS'HighThr'
p19
F0.9
sg3
I01
sas.