(lp0
(dp1
S'TimeFromH'
p2
I6
sS'calwDays'
p3
(lp4
I1
aI3
aI5
asS'Name'
p5
Vtest kvetinac-igelitka
p6
sS'Stations'
p7
(lp8
I0
asS'TimeToM'
p9
I55
sS'caliIntervalD'
p10
I1
sS'Enabled'
p11
I01
sS'calwRepeatH'
p12
F5.0
sS'FoundEmpty'
p13
I00
sS'wlEmptyDelayH'
p14
F1.0
sS'wlMinDelayH'
p15
F1.0
sS'Mode'
p16
Vwaterlevel
p17
sS'TimeToH'
p18
I23
sS'caliRepeatH'
p19
F5.0
sS'TimeLastRun'
p20
ccopy_reg
_reconstructor
p21
(carrow.arrow
Arrow
p22
c__builtin__
object
p23
Ntp24
Rp25
(dp26
S'_datetime'
p27
cdatetime
datetime
p28
(S'\x07\xdf\x07\x1a\x10:-\r(\x11'
p29
g21
(cdateutil.tz
tzlocal
p30
cdatetime
tzinfo
p31
g31
(tRp32
tp33
Rp34
tp35
Rp36
sbsS'TimeFoundEmpty'
p37
g21
(g22
g23
Ntp38
Rp39
(dp40
g27
g28
(S'\x07\xdf\x07\x1b\x11\x0f1\x0bT/'
p41
g21
(g30
g31
g31
(tRp42
tp43
Rp44
tp45
Rp46
sbsS'TimeFromM'
p47
I0
sa.