(dp0
S'SoData'
p1
(dp2
S'SaveData'
p3
I01
ssS'SeData'
p4
(dp5
g3
(lp6
ssS'StData'
p7
(lp8
(dp9
S'LowThr'
p10
F0.1
sS'Name'
p11
Vstweekly
p12
sS'HighThr'
p13
F0.9
sg3
I01
sa(dp14
g10
F0.1
sg11
S'station 1'
p15
sg13
F0.9
sg3
I01
sa(dp16
g10
F0.1
sg11
S'station 2'
p17
sg13
F0.9
sg3
I01
sa(dp18
g10
F0.1
sg11
S'station 3'
p19
sg13
F0.9
sg3
I01
sas.