(dp0
S'SoData'
p1
(dp2
S'SaveData'
p3
I01
ssS'SeData'
p4
(dp5
g3
(lp6
ssS'StData'
p7
(lp8
(dp9
S'HighThr'
p10
F0.9
sS'LowThr'
p11
F0.1
sS'Name'
p12
S'station 0'
p13
sg3
I01
sa(dp14
g10
F0.9
sg11
F0.1
sg12
S'station 1'
p15
sg3
I01
sas.