(lp0
(dp1
S'TimeFromH'
p2
I10
sS'calwDays'
p3
(lp4
I1
asS'Name'
p5
Vprgweekly
p6
sS'Stations'
p7
(lp8
I0
asS'Enabled'
p9
I01
sS'wlEmptyDelay'
p10
F3600.0
sS'TimeToM'
p11
I0
sS'Mode'
p12
Vinterval
p13
sS'caliInterval'
p14
I172800
sS'TimeToH'
p15
I20
sS'calRepeat'
p16
F3600.0
sS'wlMinDelay'
p17
F3600.0
sS'TimeLastRun'
p18
F1398534052.245491
sS'TimeFoundEmpty'
p19
I0
sS'TimeFromM'
p20
I0
sa.