(lp0
(dp1
S'TimeFromH'
p2
I1
sS'calwDays'
p3
(lp4
I1
aI3
aI5
asS'Name'
p5
Vnew program
p6
sS'Stations'
p7
(lp8
I0
asS'Enabled'
p9
I01
sS'wlEmptyDelay'
p10
F3600.0
sS'TimeToM'
p11
I0
sS'Mode'
p12
Vinterval
p13
sS'caliInterval'
p14
I86400
sS'TimeToH'
p15
I23
sS'calRepeat'
p16
F299.988
sS'wlMinDelay'
p17
F3600.0
sS'TimeLastRun'
p18
F1429694284.561836
sS'TimeFoundEmpty'
p19
I0
sS'TimeFromM'
p20
I0
sa.