(lp0
(dp1
S'TimeFromH'
p2
I6
sS'calwDays'
p3
(lp4
I1
aI3
aI5
asS'Name'
p5
Vweekly program
p6
sS'caliIntervalD'
p7
I2
sS'wlEmptyDelayH'
p8
F1.0
sS'Stations'
p9
(lp10
I0
asS'Enabled'
p11
I01
sS'calwRepeatH'
p12
F5.0
sS'FoundEmpty'
p13
I00
sS'TimeToM'
p14
I0
sS'wlMinDelayH'
p15
F1.0
sS'Mode'
p16
Vweekly
p17
sS'TimeToH'
p18
I19
sS'caliRepeatH'
p19
F5.0
sS'TimeLastRun'
p20
ccopy_reg
_reconstructor
p21
(carrow.arrow
Arrow
p22
c__builtin__
object
p23
Ntp24
Rp25
(dp26
S'_datetime'
p27
cdatetime
datetime
p28
(S'\x07\xdf\x04\x15\x06\x00\x00\x00\x00\x00'
p29
g21
(cdateutil.tz
tzlocal
p30
cdatetime
tzinfo
p31
g31
(tRp32
tp33
Rp34
tp35
Rp36
sbsS'TimeFoundEmpty'
p37
g21
(g22
g23
Ntp38
Rp39
(dp40
g27
g28
(S'\x07\xdf\x04\x17\x08\r:\x0c\x95x'
p41
g21
(g30
g31
g31
(tRp42
tp43
Rp44
tp45
Rp46
sbsS'TimeFromM'
p47
I0
sa(dp48
S'TimeFromH'
p49
I1
sS'calwDays'
p50
(lp51
I1
aI3
aI5
asS'Name'
p52
Vinterval program
p53
sS'Stations'
p54
(lp55
I1
asS'TimeToM'
p56
I0
sS'caliIntervalD'
p57
I2
sS'Enabled'
p58
I01
sS'calwRepeatH'
p59
F5.0
sS'FoundEmpty'
p60
I00
sS'wlEmptyDelayH'
p61
F1.0
sS'wlMinDelayH'
p62
F1.0
sS'Mode'
p63
Vinterval
p64
sS'TimeToH'
p65
I23
sS'caliRepeatH'
p66
F5.0
sS'TimeLastRun'
p67
g21
(g22
g23
Ntp68
Rp69
(dp70
g27
g28
(S'\x07\xdf\x04\x15\x01\x00\x00\x00\x00\x00'
p71
g21
(g30
g31
g31
(tRp72
tp73
Rp74
tp75
Rp76
sbsS'TimeFoundEmpty'
p77
g21
(g22
g23
Ntp78
Rp79
(dp80
g27
g28
(S'\x07\xdf\x04\x17\x0b2:\x00y0'
p81
g21
(g30
g31
g31
(tRp82
tp83
Rp84
tp85
Rp86
sbsS'TimeFromM'
p87
I0
sa.