(lp0
(dp1
S'calwDays'
p2
(lp3
I1
aI3
aI5
asS'TimeFrom'
p4
I21600
sS'Name'
p5
Vnewprogram
p6
sS'Stations'
p7
(lp8
I0
asS'Enabled'
p9
I01
sS'TimeTo'
p10
I64800
sS'wlEmptyDelay'
p11
F3600.0
sS'Mode'
p12
Vinterval
p13
sS'caliInterval'
p14
I172800
sS'calRepeat'
p15
F18000.0
sS'wlMinDelay'
p16
F3600.0
sa.