(dp0
S'SoData'
p1
(dp2
S'SaveData'
p3
I01
ssS'SeData'
p4
(dp5
g3
(lp6
ssS'StData'
p7
(lp8
(dp9
S'HighThr'
p10
F0.9
sS'LowThr'
p11
F0.1
sg3
I01
sS'Name'
p12
S'station 0'
p13
sS'Desc'
p14
S'volume is 1.0 l, fill time is 35.6 s, sensor detects station is empty'
p15
sa(dp16
g10
F0.9
sg11
F0.1
sg3
I01
sg12
S'station 1'
p17
sg14
S'volume is 1.0 l, fill time is 35.6 s, sensor detects station is full'
p18
sas.